target datalayout = "e-m:e-p270:32:32-p271:32:32-p272:64:64-i64:64-i128:128-f80:128-n8:16:32:64-S128"
target triple = "x86_64-pc-linux-gnu"

%"class.Imath_3_2::Box" = type { %"class.Imath_3_2::Vec2.0", %"class.Imath_3_2::Vec2.0" }
%"class.Imath_3_2::Vec2.0" = type { i32, i32 }

; Function Attrs: inlinehint mustprogress nounwind uwtable
define linkonce_odr hidden noundef nonnull align 4 dereferenceable(8) ptr @_ZN9Imath_3_24Vec2IiEaSERKS1_(ptr noundef nonnull align 4 dereferenceable(8) %0, ptr noundef nonnull align 4 dereferenceable(8) %1) #6 comdat align 2 {
  %3 = alloca ptr, align 8
  %4 = alloca ptr, align 8
  store ptr %0, ptr %3, align 8, !tbaa !35
  store ptr %1, ptr %4, align 8, !tbaa !35
  %5 = load ptr, ptr %3, align 8
  %6 = load ptr, ptr %4, align 8, !tbaa !35
  %7 = getelementptr inbounds nuw %"class.Imath_3_2::Vec2.0", ptr %6, i32 0, i32 0
  %8 = load i32, ptr %7, align 4, !tbaa !37
  %9 = getelementptr inbounds nuw %"class.Imath_3_2::Vec2.0", ptr %5, i32 0, i32 0
  store i32 %8, ptr %9, align 4, !tbaa !37
  %10 = load ptr, ptr %4, align 8, !tbaa !35
  %11 = getelementptr inbounds nuw %"class.Imath_3_2::Vec2.0", ptr %10, i32 0, i32 1
  %12 = load i32, ptr %11, align 4, !tbaa !39
  %13 = getelementptr inbounds nuw %"class.Imath_3_2::Vec2.0", ptr %5, i32 0, i32 1
  store i32 %12, ptr %13, align 4, !tbaa !39
  ret ptr %5
}

; Function Attrs: inlinehint mustprogress nounwind uwtable
define linkonce_odr hidden void @_ZN9Imath_3_24Vec2IiEC2Ev(ptr noundef nonnull align 4 dereferenceable(8) %0) unnamed_addr #6 comdat align 2 {
  %2 = alloca ptr, align 8
  store ptr %0, ptr %2, align 8, !tbaa !35
  ret void
}

; Function Attrs: inlinehint mustprogress nounwind uwtable
define linkonce_odr hidden noundef nonnull align 4 dereferenceable(16) ptr @_ZN9Imath_3_23BoxINS_4Vec2IiEEEaSEOS3_(ptr noundef nonnull align 4 dereferenceable(16) %0, ptr noundef nonnull align 4 dereferenceable(16) %1) #6 comdat align 2 {
  %3 = alloca ptr, align 8
  %4 = alloca ptr, align 8
  store ptr %0, ptr %3, align 8, !tbaa !40
  store ptr %1, ptr %4, align 8, !tbaa !40
  %5 = load ptr, ptr %3, align 8
  %6 = getelementptr inbounds nuw %"class.Imath_3_2::Box", ptr %5, i32 0, i32 0
  %7 = load ptr, ptr %4, align 8, !tbaa !40
  %8 = getelementptr inbounds nuw %"class.Imath_3_2::Box", ptr %7, i32 0, i32 0
  %9 = call noundef nonnull align 4 dereferenceable(8) ptr @_ZN9Imath_3_24Vec2IiEaSERKS1_(ptr noundef nonnull align 4 dereferenceable(8) %6, ptr noundef nonnull align 4 dereferenceable(8) %8) #3
  %10 = getelementptr inbounds nuw %"class.Imath_3_2::Box", ptr %5, i32 0, i32 1
  %11 = load ptr, ptr %4, align 8, !tbaa !40
  %12 = getelementptr inbounds nuw %"class.Imath_3_2::Box", ptr %11, i32 0, i32 1
  %13 = call noundef nonnull align 4 dereferenceable(8) ptr @_ZN9Imath_3_24Vec2IiEaSERKS1_(ptr noundef nonnull align 4 dereferenceable(8) %10, ptr noundef nonnull align 4 dereferenceable(8) %12) #3
  ret ptr %5
}

; Function Attrs: inlinehint mustprogress nounwind uwtable
define internal noundef ptr @_ZN12_GLOBAL__N_16headerEP9ImfHeader(ptr noundef %0) #6 {
  %2 = alloca ptr, align 8
  store ptr %0, ptr %2, align 8, !tbaa !33
  %3 = load ptr, ptr %2, align 8, !tbaa !33
  ret ptr %3
}

; Function Attrs: inlinehint mustprogress nounwind uwtable
define linkonce_odr hidden void @_ZN9Imath_3_23BoxINS_4Vec2IiEEEC2ERKS2_S5_(ptr noundef nonnull align 4 dereferenceable(16) %0, ptr noundef nonnull align 4 dereferenceable(8) %1, ptr noundef nonnull align 4 dereferenceable(8) %2) unnamed_addr #6 comdat align 2 {
  %4 = alloca ptr, align 8
  %5 = alloca ptr, align 8
  %6 = alloca ptr, align 8
  store ptr %0, ptr %4, align 8, !tbaa !40
  store ptr %1, ptr %5, align 8, !tbaa !35
  store ptr %2, ptr %6, align 8, !tbaa !35
  %7 = load ptr, ptr %4, align 8
  %8 = getelementptr inbounds nuw %"class.Imath_3_2::Box", ptr %7, i32 0, i32 0
  call void @_ZN9Imath_3_24Vec2IiEC2Ev(ptr noundef nonnull align 4 dereferenceable(8) %8) #3
  %9 = getelementptr inbounds nuw %"class.Imath_3_2::Box", ptr %7, i32 0, i32 1
  call void @_ZN9Imath_3_24Vec2IiEC2Ev(ptr noundef nonnull align 4 dereferenceable(8) %9) #3
  %10 = load ptr, ptr %5, align 8, !tbaa !35
  %11 = getelementptr inbounds nuw %"class.Imath_3_2::Box", ptr %7, i32 0, i32 0
  %12 = call noundef nonnull align 4 dereferenceable(8) ptr @_ZN9Imath_3_24Vec2IiEaSERKS1_(ptr noundef nonnull align 4 dereferenceable(8) %11, ptr noundef nonnull align 4 dereferenceable(8) %10) #3
  %13 = load ptr, ptr %6, align 8, !tbaa !35
  %14 = getelementptr inbounds nuw %"class.Imath_3_2::Box", ptr %7, i32 0, i32 1
  %15 = call noundef nonnull align 4 dereferenceable(8) ptr @_ZN9Imath_3_24Vec2IiEaSERKS1_(ptr noundef nonnull align 4 dereferenceable(8) %14, ptr noundef nonnull align 4 dereferenceable(8) %13) #3
  ret void
}

; Function Attrs: inlinehint mustprogress nounwind uwtable
define linkonce_odr hidden void @_ZN9Imath_3_24Vec2IiEC2Eii(ptr noundef nonnull align 4 dereferenceable(8) %0, i32 noundef %1, i32 noundef %2) unnamed_addr #6 comdat align 2 {
  %4 = alloca ptr, align 8
  %5 = alloca i32, align 4
  %6 = alloca i32, align 4
  store ptr %0, ptr %4, align 8, !tbaa !35
  store i32 %1, ptr %5, align 4, !tbaa !16
  store i32 %2, ptr %6, align 4, !tbaa !16
  %7 = load ptr, ptr %4, align 8
  %8 = getelementptr inbounds nuw %"class.Imath_3_2::Vec2.0", ptr %7, i32 0, i32 0
  %9 = load i32, ptr %5, align 4, !tbaa !16
  store i32 %9, ptr %8, align 4, !tbaa !37
  %10 = getelementptr inbounds nuw %"class.Imath_3_2::Vec2.0", ptr %7, i32 0, i32 1
  %11 = load i32, ptr %6, align 4, !tbaa !16
  store i32 %11, ptr %10, align 4, !tbaa !39
  ret void
}

; Function Attrs: mustprogress uwtable
define void @ImfHeaderSetDisplayWindow(ptr noundef %0, i32 noundef %1, i32 noundef %2, i32 noundef %3, i32 noundef %4) #7 {
  %6 = alloca ptr, align 8
  %7 = alloca i32, align 4
  %8 = alloca i32, align 4
  %9 = alloca i32, align 4
  %10 = alloca i32, align 4
  %11 = alloca %"class.Imath_3_2::Box", align 4
  %12 = alloca %"class.Imath_3_2::Vec2.0", align 4
  %13 = alloca %"class.Imath_3_2::Vec2.0", align 4
  store ptr %0, ptr %6, align 8, !tbaa !33
  store i32 %1, ptr %7, align 4, !tbaa !16
  store i32 %2, ptr %8, align 4, !tbaa !16
  store i32 %3, ptr %9, align 4, !tbaa !16
  store i32 %4, ptr %10, align 4, !tbaa !16
  call void @llvm.lifetime.start.p0(i64 16, ptr %11) #3
  call void @llvm.lifetime.start.p0(i64 8, ptr %12) #3
  %14 = load i32, ptr %7, align 4, !tbaa !16
  %15 = load i32, ptr %8, align 4, !tbaa !16
  call void @_ZN9Imath_3_24Vec2IiEC2Eii(ptr noundef nonnull align 4 dereferenceable(8) %12, i32 noundef %14, i32 noundef %15) #3
  call void @llvm.lifetime.start.p0(i64 8, ptr %13) #3
  %16 = load i32, ptr %9, align 4, !tbaa !16
  %17 = load i32, ptr %10, align 4, !tbaa !16
  call void @_ZN9Imath_3_24Vec2IiEC2Eii(ptr noundef nonnull align 4 dereferenceable(8) %13, i32 noundef %16, i32 noundef %17) #3
  call void @_ZN9Imath_3_23BoxINS_4Vec2IiEEEC2ERKS2_S5_(ptr noundef nonnull align 4 dereferenceable(16) %11, ptr noundef nonnull align 4 dereferenceable(8) %12, ptr noundef nonnull align 4 dereferenceable(8) %13) #3
  %18 = load ptr, ptr %6, align 8, !tbaa !33
  %19 = call noundef ptr @_ZN12_GLOBAL__N_16headerEP9ImfHeader(ptr noundef %18)
  %20 = call noundef nonnull align 4 dereferenceable(16) ptr @_ZN7Imf_3_46Header13displayWindowEv(ptr noundef nonnull align 8 dereferenceable(49) %19)
  %21 = call noundef nonnull align 4 dereferenceable(16) ptr @_ZN9Imath_3_23BoxINS_4Vec2IiEEEaSEOS3_(ptr noundef nonnull align 4 dereferenceable(16) %20, ptr noundef nonnull align 4 dereferenceable(16) %11) #3
  call void @llvm.lifetime.end.p0(i64 8, ptr %13) #3
  call void @llvm.lifetime.end.p0(i64 8, ptr %12) #3
  call void @llvm.lifetime.end.p0(i64 16, ptr %11) #3
  ret void
}