; Function Attrs: mustprogress uwtable
define void @ImfHeaderSetDisplayWindow(ptr noundef nonnull %0, i32 noundef %1, i32 noundef %2, i32 noundef %3, i32 noundef %4) local_unnamed_addr #8 {
  %6 = tail call noundef nonnull align 4 dereferenceable(16) ptr @_ZN7Imf_3_46Header13displayWindowEv(ptr noundef nonnull align 8 dereferenceable(49) %0)
  store i32 %1, ptr %6, align 4, !tbaa !24
  %7 = getelementptr inbounds nuw i8, ptr %6, i64 4
  store i32 %2, ptr %7, align 4, !tbaa !27
  %8 = getelementptr inbounds nuw i8, ptr %6, i64 8
  store i32 %3, ptr %8, align 4, !tbaa !24
  %9 = getelementptr inbounds nuw i8, ptr %6, i64 12
  store i32 %4, ptr %9, align 4, !tbaa !27
  ret void
}